; Function Attrs: mustprogress nounwind uwtable
define hidden noundef ptr @_ZN21AdapterHandlerLibrary9new_entryEP18AdapterFingerPrintPhS2_S2_S2_(ptr noundef %0, ptr noundef %1, ptr noundef %2, ptr noundef %3, ptr noundef %4) local_unnamed_addr #0 align 2 {
  %6 = tail call noundef ptr @_Z12AllocateHeapm8MEMFLAGSN17AllocFailStrategy13AllocFailEnumE(i64 noundef 40, i8 noundef zeroext 4, i32 noundef 0) #18
  store ptr %0, ptr %6, align 8
  %7 = getelementptr inbounds i8, ptr %6, i64 8
  store ptr %1, ptr %7, align 8
  %8 = getelementptr inbounds i8, ptr %6, i64 16
  store ptr %2, ptr %8, align 8
  %9 = getelementptr inbounds i8, ptr %6, i64 24
  store ptr %3, ptr %9, align 8
  %10 = getelementptr inbounds i8, ptr %6, i64 32
  store ptr %4, ptr %10, align 8
  ret ptr %6
}